; ModuleID = '63/1293.c'
source_filename = "63/1293.c"
target datalayout = "e-m:e-p270:32:32-p271:32:32-p272:64:64-i64:64-f80:128-n8:16:32:64-S128"
target triple = "x86_64-pc-linux-gnu"

@.str = private unnamed_addr constant [6 x i8] c"%d %d\00", align 1
@.str.1 = private unnamed_addr constant [3 x i8] c"%d\00", align 1
@.str.2 = private unnamed_addr constant [4 x i8] c"%d \00", align 1
@.str.3 = private unnamed_addr constant [4 x i8] c"%d\0A\00", align 1

; Function Attrs: noinline nounwind uwtable
define dso_local i32 @main() #0 {
  %1 = alloca i32, align 4
  %2 = alloca i32, align 4
  %3 = alloca i32, align 4
  %4 = alloca i32, align 4
  %5 = alloca i32, align 4
  %6 = alloca [101 x [101 x i32]], align 16
  %7 = alloca [101 x [101 x i32]], align 16
  %8 = alloca [101 x [101 x i32]], align 16
  %9 = alloca i32, align 4
  %10 = alloca i32, align 4
  %11 = alloca i32, align 4
  store i32 0, i32* %1, align 4
  %12 = bitcast [101 x [101 x i32]]* %6 to i8*
  call void @llvm.memset.p0i8.i64(i8* align 16 %12, i8 0, i64 40804, i1 false)
  %13 = bitcast [101 x [101 x i32]]* %7 to i8*
  call void @llvm.memset.p0i8.i64(i8* align 16 %13, i8 0, i64 40804, i1 false)
  %14 = bitcast [101 x [101 x i32]]* %8 to i8*
  call void @llvm.memset.p0i8.i64(i8* align 16 %14, i8 0, i64 40804, i1 false)
  %15 = call i32 (i8*, ...) @__isoc99_scanf(i8* getelementptr inbounds ([6 x i8], [6 x i8]* @.str, i64 0, i64 0), i32* %2, i32* %4)
  store i32 0, i32* %9, align 4
  br label %16

16:                                               ; preds = %37, %0
  %17 = load i32, i32* %9, align 4
  %18 = load i32, i32* %2, align 4
  %19 = icmp slt i32 %17, %18
  br i1 %19, label %20, label %40

20:                                               ; preds = %16
  store i32 0, i32* %10, align 4
  br label %21

21:                                               ; preds = %33, %20
  %22 = load i32, i32* %10, align 4
  %23 = load i32, i32* %4, align 4
  %24 = icmp slt i32 %22, %23
  br i1 %24, label %25, label %36

25:                                               ; preds = %21
  %26 = load i32, i32* %9, align 4
  %27 = sext i32 %26 to i64
  %28 = getelementptr inbounds [101 x [101 x i32]], [101 x [101 x i32]]* %6, i64 0, i64 %27
  %29 = load i32, i32* %10, align 4
  %30 = sext i32 %29 to i64
  %31 = getelementptr inbounds [101 x i32], [101 x i32]* %28, i64 0, i64 %30
  %32 = call i32 (i8*, ...) @__isoc99_scanf(i8* getelementptr inbounds ([3 x i8], [3 x i8]* @.str.1, i64 0, i64 0), i32* %31)
  br label %33

33:                                               ; preds = %25
  %34 = load i32, i32* %10, align 4
  %35 = add nsw i32 %34, 1
  store i32 %35, i32* %10, align 4
  br label %21

36:                                               ; preds = %21
  br label %37

37:                                               ; preds = %36
  %38 = load i32, i32* %9, align 4
  %39 = add nsw i32 %38, 1
  store i32 %39, i32* %9, align 4
  br label %16

40:                                               ; preds = %16
  %41 = call i32 (i8*, ...) @__isoc99_scanf(i8* getelementptr inbounds ([6 x i8], [6 x i8]* @.str, i64 0, i64 0), i32* %3, i32* %5)
  store i32 0, i32* %9, align 4
  br label %42

42:                                               ; preds = %63, %40
  %43 = load i32, i32* %9, align 4
  %44 = load i32, i32* %3, align 4
  %45 = icmp slt i32 %43, %44
  br i1 %45, label %46, label %66

46:                                               ; preds = %42
  store i32 0, i32* %10, align 4
  br label %47

47:                                               ; preds = %59, %46
  %48 = load i32, i32* %10, align 4
  %49 = load i32, i32* %5, align 4
  %50 = icmp slt i32 %48, %49
  br i1 %50, label %51, label %62

51:                                               ; preds = %47
  %52 = load i32, i32* %9, align 4
  %53 = sext i32 %52 to i64
  %54 = getelementptr inbounds [101 x [101 x i32]], [101 x [101 x i32]]* %7, i64 0, i64 %53
  %55 = load i32, i32* %10, align 4
  %56 = sext i32 %55 to i64
  %57 = getelementptr inbounds [101 x i32], [101 x i32]* %54, i64 0, i64 %56
  %58 = call i32 (i8*, ...) @__isoc99_scanf(i8* getelementptr inbounds ([3 x i8], [3 x i8]* @.str.1, i64 0, i64 0), i32* %57)
  br label %59

59:                                               ; preds = %51
  %60 = load i32, i32* %10, align 4
  %61 = add nsw i32 %60, 1
  store i32 %61, i32* %10, align 4
  br label %47

62:                                               ; preds = %47
  br label %63

63:                                               ; preds = %62
  %64 = load i32, i32* %9, align 4
  %65 = add nsw i32 %64, 1
  store i32 %65, i32* %9, align 4
  br label %42

66:                                               ; preds = %42
  store i32 0, i32* %9, align 4
  br label %67

67:                                               ; preds = %165, %66
  %68 = load i32, i32* %9, align 4
  %69 = load i32, i32* %2, align 4
  %70 = icmp slt i32 %68, %69
  br i1 %70, label %71, label %168

71:                                               ; preds = %67
  store i32 0, i32* %10, align 4
  br label %72

72:                                               ; preds = %118, %71
  %73 = load i32, i32* %10, align 4
  %74 = load i32, i32* %5, align 4
  %75 = sub nsw i32 %74, 1
  %76 = icmp slt i32 %73, %75
  br i1 %76, label %77, label %121

77:                                               ; preds = %72
  store i32 0, i32* %11, align 4
  br label %78

78:                                               ; preds = %106, %77
  %79 = load i32, i32* %11, align 4
  %80 = load i32, i32* %3, align 4
  %81 = icmp slt i32 %79, %80
  br i1 %81, label %82, label %109

82:                                               ; preds = %78
  %83 = load i32, i32* %9, align 4
  %84 = sext i32 %83 to i64
  %85 = getelementptr inbounds [101 x [101 x i32]], [101 x [101 x i32]]* %6, i64 0, i64 %84
  %86 = load i32, i32* %11, align 4
  %87 = sext i32 %86 to i64
  %88 = getelementptr inbounds [101 x i32], [101 x i32]* %85, i64 0, i64 %87
  %89 = load i32, i32* %88, align 4
  %90 = load i32, i32* %11, align 4
  %91 = sext i32 %90 to i64
  %92 = getelementptr inbounds [101 x [101 x i32]], [101 x [101 x i32]]* %7, i64 0, i64 %91
  %93 = load i32, i32* %10, align 4
  %94 = sext i32 %93 to i64
  %95 = getelementptr inbounds [101 x i32], [101 x i32]* %92, i64 0, i64 %94
  %96 = load i32, i32* %95, align 4
  %97 = mul nsw i32 %89, %96
  %98 = load i32, i32* %9, align 4
  %99 = sext i32 %98 to i64
  %100 = getelementptr inbounds [101 x [101 x i32]], [101 x [101 x i32]]* %8, i64 0, i64 %99
  %101 = load i32, i32* %10, align 4
  %102 = sext i32 %101 to i64
  %103 = getelementptr inbounds [101 x i32], [101 x i32]* %100, i64 0, i64 %102
  %104 = load i32, i32* %103, align 4
  %105 = add nsw i32 %104, %97
  store i32 %105, i32* %103, align 4
  br label %106

106:                                              ; preds = %82
  %107 = load i32, i32* %11, align 4
  %108 = add nsw i32 %107, 1
  store i32 %108, i32* %11, align 4
  br label %78

109:                                              ; preds = %78
  %110 = load i32, i32* %9, align 4
  %111 = sext i32 %110 to i64
  %112 = getelementptr inbounds [101 x [101 x i32]], [101 x [101 x i32]]* %8, i64 0, i64 %111
  %113 = load i32, i32* %10, align 4
  %114 = sext i32 %113 to i64
  %115 = getelementptr inbounds [101 x i32], [101 x i32]* %112, i64 0, i64 %114
  %116 = load i32, i32* %115, align 4
  %117 = call i32 (i8*, ...) @printf(i8* getelementptr inbounds ([4 x i8], [4 x i8]* @.str.2, i64 0, i64 0), i32 %116)
  br label %118

118:                                              ; preds = %109
  %119 = load i32, i32* %10, align 4
  %120 = add nsw i32 %119, 1
  store i32 %120, i32* %10, align 4
  br label %72

121:                                              ; preds = %72
  store i32 0, i32* %11, align 4
  br label %122

122:                                              ; preds = %152, %121
  %123 = load i32, i32* %11, align 4
  %124 = load i32, i32* %3, align 4
  %125 = icmp slt i32 %123, %124
  br i1 %125, label %126, label %155

126:                                              ; preds = %122
  %127 = load i32, i32* %9, align 4
  %128 = sext i32 %127 to i64
  %129 = getelementptr inbounds [101 x [101 x i32]], [101 x [101 x i32]]* %6, i64 0, i64 %128
  %130 = load i32, i32* %11, align 4
  %131 = sext i32 %130 to i64
  %132 = getelementptr inbounds [101 x i32], [101 x i32]* %129, i64 0, i64 %131
  %133 = load i32, i32* %132, align 4
  %134 = load i32, i32* %11, align 4
  %135 = sext i32 %134 to i64
  %136 = getelementptr inbounds [101 x [101 x i32]], [101 x [101 x i32]]* %7, i64 0, i64 %135
  %137 = load i32, i32* %5, align 4
  %138 = sub nsw i32 %137, 1
  %139 = sext i32 %138 to i64
  %140 = getelementptr inbounds [101 x i32], [101 x i32]* %136, i64 0, i64 %139
  %141 = load i32, i32* %140, align 4
  %142 = mul nsw i32 %133, %141
  %143 = load i32, i32* %9, align 4
  %144 = sext i32 %143 to i64
  %145 = getelementptr inbounds [101 x [101 x i32]], [101 x [101 x i32]]* %8, i64 0, i64 %144
  %146 = load i32, i32* %5, align 4
  %147 = sub nsw i32 %146, 1
  %148 = sext i32 %147 to i64
  %149 = getelementptr inbounds [101 x i32], [101 x i32]* %145, i64 0, i64 %148
  %150 = load i32, i32* %149, align 4
  %151 = add nsw i32 %150, %142
  store i32 %151, i32* %149, align 4
  br label %152

152:                                              ; preds = %126
  %153 = load i32, i32* %11, align 4
  %154 = add nsw i32 %153, 1
  store i32 %154, i32* %11, align 4
  br label %122

155:                                              ; preds = %122
  %156 = load i32, i32* %9, align 4
  %157 = sext i32 %156 to i64
  %158 = getelementptr inbounds [101 x [101 x i32]], [101 x [101 x i32]]* %8, i64 0, i64 %157
  %159 = load i32, i32* %5, align 4
  %160 = sub nsw i32 %159, 1
  %161 = sext i32 %160 to i64
  %162 = getelementptr inbounds [101 x i32], [101 x i32]* %158, i64 0, i64 %161
  %163 = load i32, i32* %162, align 4
  %164 = call i32 (i8*, ...) @printf(i8* getelementptr inbounds ([4 x i8], [4 x i8]* @.str.3, i64 0, i64 0), i32 %163)
  br label %165

165:                                              ; preds = %155
  %166 = load i32, i32* %9, align 4
  %167 = add nsw i32 %166, 1
  store i32 %167, i32* %9, align 4
  br label %67

168:                                              ; preds = %67
  ret i32 0
}

; Function Attrs: argmemonly nounwind willreturn
declare void @llvm.memset.p0i8.i64(i8* nocapture writeonly, i8, i64, i1 immarg) #1

declare dso_local i32 @__isoc99_scanf(i8*, ...) #2

declare dso_local i32 @printf(i8*, ...) #2


!llvm.module.flags = !{!0}
!llvm.ident = !{!1}

!0 = !{i32 1, !"wchar_size", i32 4}
!1 = !{!"clang version 10.0.0-4ubuntu1 "}
